target datalayout = "e-m:e-p270:32:32-p271:32:32-p272:64:64-i64:64-i128:128-f80:128-n8:16:32:64-S128"
target triple = "x86_64-pc-linux-gnu"

; Function Attrs: inlinehint nounwind sspstrong willreturn memory(none) uwtable
define internal i64 @RB_INT2FIX(i64 noundef %0) #9 {
  %2 = alloca i64, align 8
  %3 = alloca i64, align 8
  %4 = alloca i64, align 8
  %5 = alloca i64, align 8
  %6 = alloca i64, align 8
  %7 = alloca i64, align 8
  store i64 %0, ptr %2, align 8, !tbaa !14
  call void @llvm.lifetime.start.p0(i64 8, ptr %3) #20
  %8 = load i64, ptr %2, align 8, !tbaa !14
  store i64 %8, ptr %3, align 8, !tbaa !14
  call void @llvm.lifetime.start.p0(i64 8, ptr %4) #20
  %9 = load i64, ptr %3, align 8, !tbaa !14
  %10 = shl i64 %9, 1
  %11 = add i64 %10, 1
  store i64 %11, ptr %4, align 8, !tbaa !14
  call void @llvm.lifetime.start.p0(i64 8, ptr %5) #20
  %12 = load i64, ptr %4, align 8, !tbaa !14
  store i64 %12, ptr %5, align 8, !tbaa !14
  call void @llvm.lifetime.start.p0(i64 8, ptr %6) #20
  %13 = load i64, ptr %5, align 8, !tbaa !14
  store i64 %13, ptr %6, align 8, !tbaa !14
  call void @llvm.lifetime.start.p0(i64 8, ptr %7) #20
  %14 = load i64, ptr %6, align 8, !tbaa !14
  store i64 %14, ptr %7, align 8, !tbaa !14
  %15 = load i64, ptr %7, align 8, !tbaa !14
  call void @llvm.lifetime.end.p0(i64 8, ptr %7) #20
  call void @llvm.lifetime.end.p0(i64 8, ptr %6) #20
  call void @llvm.lifetime.end.p0(i64 8, ptr %5) #20
  call void @llvm.lifetime.end.p0(i64 8, ptr %4) #20
  call void @llvm.lifetime.end.p0(i64 8, ptr %3) #20
  ret i64 %15
}

; Function Attrs: inlinehint nounwind sspstrong uwtable
define internal i64 @rb_int2num_inline(i32 noundef %0) #4 {
  %2 = alloca i64, align 8
  %3 = alloca i32, align 4
  store i32 %0, ptr %3, align 4, !tbaa !12
  %4 = load i32, ptr %3, align 4, !tbaa !12
  %5 = sext i32 %4 to i64
  %6 = icmp slt i64 %5, 4611686018427387904
  br i1 %6, label %7, label %15

7:                                                ; preds = %1
  %8 = load i32, ptr %3, align 4, !tbaa !12
  %9 = sext i32 %8 to i64
  %10 = icmp sge i64 %9, -4611686018427387904
  br i1 %10, label %11, label %15

11:                                               ; preds = %7
  %12 = load i32, ptr %3, align 4, !tbaa !12
  %13 = sext i32 %12 to i64
  %14 = call i64 @RB_INT2FIX(i64 noundef %13) #23
  store i64 %14, ptr %2, align 8
  br label %19

15:                                               ; preds = %7, %1
  %16 = load i32, ptr %3, align 4, !tbaa !12
  %17 = sext i32 %16 to i64
  %18 = call i64 @rb_int2big(i64 noundef %17)
  store i64 %18, ptr %2, align 8
  br label %19

19:                                               ; preds = %15, %11
  %20 = load i64, ptr %2, align 8
  ret i64 %20
}

; Function Attrs: nounwind sspstrong uwtable
define internal i64 @ossl_ssl_cipher_to_ary(ptr noundef %0) #0 {
  %2 = alloca ptr, align 8
  %3 = alloca i64, align 8
  %4 = alloca i32, align 4
  %5 = alloca i32, align 4
  store ptr %0, ptr %2, align 8, !tbaa !26
  call void @llvm.lifetime.start.p0(i64 8, ptr %3) #20
  call void @llvm.lifetime.start.p0(i64 4, ptr %4) #20
  call void @llvm.lifetime.start.p0(i64 4, ptr %5) #20
  %6 = call i64 @rb_ary_new_capa(i64 noundef 4)
  store i64 %6, ptr %3, align 8, !tbaa !14
  %7 = load i64, ptr %3, align 8, !tbaa !14
  %8 = load ptr, ptr %2, align 8, !tbaa !26
  %9 = call ptr @SSL_CIPHER_get_name(ptr noundef %8)
  %10 = call i64 @rb_str_new_cstr(ptr noundef %9)
  %11 = call i64 @rb_ary_push(i64 noundef %7, i64 noundef %10)
  %12 = load i64, ptr %3, align 8, !tbaa !14
  %13 = load ptr, ptr %2, align 8, !tbaa !26
  %14 = call ptr @SSL_CIPHER_get_version(ptr noundef %13)
  %15 = call i64 @rb_str_new_cstr(ptr noundef %14)
  %16 = call i64 @rb_ary_push(i64 noundef %12, i64 noundef %15)
  %17 = load ptr, ptr %2, align 8, !tbaa !26
  %18 = call i32 @SSL_CIPHER_get_bits(ptr noundef %17, ptr noundef %5)
  store i32 %18, ptr %4, align 4, !tbaa !12
  %19 = load i64, ptr %3, align 8, !tbaa !14
  %20 = load i32, ptr %4, align 4, !tbaa !12
  %21 = call i64 @rb_int2num_inline(i32 noundef %20)
  %22 = call i64 @rb_ary_push(i64 noundef %19, i64 noundef %21)
  %23 = load i64, ptr %3, align 8, !tbaa !14
  %24 = load i32, ptr %5, align 4, !tbaa !12
  %25 = call i64 @rb_int2num_inline(i32 noundef %24)
  %26 = call i64 @rb_ary_push(i64 noundef %23, i64 noundef %25)
  %27 = load i64, ptr %3, align 8, !tbaa !14
  call void @llvm.lifetime.end.p0(i64 4, ptr %5) #20
  call void @llvm.lifetime.end.p0(i64 4, ptr %4) #20
  call void @llvm.lifetime.end.p0(i64 8, ptr %3) #20
  ret i64 %27
}