; Function Attrs: nounwind sspstrong uwtable
define internal fastcc i64 @ossl_ssl_cipher_to_ary(ptr noundef %0) unnamed_addr #0 {
  %2 = alloca i32, align 4
  call void @llvm.lifetime.start.p0(i64 4, ptr nonnull %2) #9
  %3 = tail call i64 @rb_ary_new_capa(i64 noundef 4) #9
  %4 = tail call ptr @SSL_CIPHER_get_name(ptr noundef %0) #9
  %5 = tail call i64 @rb_str_new_cstr(ptr noundef %4) #9
  %6 = tail call i64 @rb_ary_push(i64 noundef %3, i64 noundef %5) #9
  %7 = tail call ptr @SSL_CIPHER_get_version(ptr noundef %0) #9
  %8 = tail call i64 @rb_str_new_cstr(ptr noundef %7) #9
  %9 = tail call i64 @rb_ary_push(i64 noundef %3, i64 noundef %8) #9
  %10 = call i32 @SSL_CIPHER_get_bits(ptr noundef %0, ptr noundef nonnull %2) #9
  %11 = sext i32 %10 to i64
  %12 = shl nsw i64 %11, 1
  %13 = or disjoint i64 %12, 1
  %14 = call i64 @rb_ary_push(i64 noundef %3, i64 noundef %13) #9
  %15 = load i32, ptr %2, align 4, !tbaa !6
  %16 = sext i32 %15 to i64
  %17 = shl nsw i64 %16, 1
  %18 = or disjoint i64 %17, 1
  %19 = call i64 @rb_ary_push(i64 noundef %3, i64 noundef %18) #9
  call void @llvm.lifetime.end.p0(i64 4, ptr nonnull %2) #9
  ret i64 %3
}